target datalayout = "e-m:e-p270:32:32-p271:32:32-p272:64:64-i64:64-i128:128-f80:128-n8:16:32:64-S128"
target triple = "x86_64-pc-linux-gnu"

%struct.b2ShapeId = type { i32, i16, i16 }
%struct.b2Vec2 = type { float, float }
%struct.b2ChainShapeArray = type { ptr, i32, i32 }
%struct.b2ShapeArray = type { ptr, i32, i32 }
%struct.b2Filter = type { i64, i64, i32 }
%struct.b2Shape = type { i32, i32, i32, i32, i32, i32, float, float, float, float, float, i32, %struct.b2AABB, %struct.b2AABB, %struct.b2Vec2, i32, %struct.b2Filter, ptr, i32, %union.anon.0, i16, i8, i8, i8, i8 }
%struct.b2AABB = type { %struct.b2Vec2, %struct.b2Vec2 }
%union.anon.0 = type { %struct.b2Polygon }
%struct.b2Polygon = type { [8 x %struct.b2Vec2], [8 x %struct.b2Vec2], %struct.b2Vec2, float, i32 }
%struct.b2World = type { %struct.b2ArenaAllocator, %struct.b2BroadPhase, %struct.b2ConstraintGraph, %struct.b2IdPool, %struct.b2BodyArray, %struct.b2IdPool, %struct.b2SolverSetArray, %struct.b2IdPool, %struct.b2JointArray, %struct.b2IdPool, %struct.b2ContactArray, %struct.b2IdPool, %struct.b2IslandArray, %struct.b2IdPool, %struct.b2IdPool, %struct.b2ShapeArray, %struct.b2ChainShapeArray, %struct.b2SensorArray, %struct.b2TaskContextArray, %struct.b2SensorTaskContextArray, %struct.b2BodyMoveEventArray, %struct.b2SensorBeginTouchEventArray, %struct.b2ContactBeginTouchEventArray, [2 x %struct.b2SensorEndTouchEventArray], [2 x %struct.b2ContactEndTouchEventArray], i32, %struct.b2ContactHitEventArray, %struct.b2BitSet, %struct.b2BitSet, %struct.b2BitSet, i64, i32, %struct.b2Vec2, float, float, float, float, float, float, float, float, ptr, ptr, i16, %struct.b2Profile, ptr, ptr, ptr, ptr, i32, ptr, ptr, ptr, ptr, ptr, float, i32, i32, i16, i8, i8, i8, i8, i8, i8 }
%struct.b2ArenaAllocator = type { ptr, i32, i32, i32, i32, %struct.b2ArenaEntryArray }
%struct.b2ArenaEntryArray = type { ptr, i32, i32 }
%struct.b2BroadPhase = type { [3 x %struct.b2DynamicTree], i32, %struct.b2HashSet, %struct.b2IntArray, ptr, ptr, i32, %struct.b2AtomicInt, %struct.b2HashSet }
%struct.b2DynamicTree = type { ptr, i32, i32, i32, i32, i32, ptr, ptr, ptr, ptr, i32 }
%struct.b2IntArray = type { ptr, i32, i32 }
%struct.b2AtomicInt = type { i32 }
%struct.b2HashSet = type { ptr, i32, i32 }
%struct.b2ConstraintGraph = type { [12 x %struct.b2GraphColor] }
%struct.b2GraphColor = type { %struct.b2BitSet, %struct.b2ContactSimArray, %struct.b2JointSimArray, %union.anon }
%struct.b2ContactSimArray = type { ptr, i32, i32 }
%struct.b2JointSimArray = type { ptr, i32, i32 }
%union.anon = type { ptr }
%struct.b2BodyArray = type { ptr, i32, i32 }
%struct.b2SolverSetArray = type { ptr, i32, i32 }
%struct.b2JointArray = type { ptr, i32, i32 }
%struct.b2ContactArray = type { ptr, i32, i32 }
%struct.b2IslandArray = type { ptr, i32, i32 }
%struct.b2IdPool = type { %struct.b2IntArray, i32 }
%struct.b2SensorArray = type { ptr, i32, i32 }
%struct.b2TaskContextArray = type { ptr, i32, i32 }
%struct.b2SensorTaskContextArray = type { ptr, i32, i32 }
%struct.b2BodyMoveEventArray = type { ptr, i32, i32 }
%struct.b2SensorBeginTouchEventArray = type { ptr, i32, i32 }
%struct.b2ContactBeginTouchEventArray = type { ptr, i32, i32 }
%struct.b2SensorEndTouchEventArray = type { ptr, i32, i32 }
%struct.b2ContactEndTouchEventArray = type { ptr, i32, i32 }
%struct.b2ContactHitEventArray = type { ptr, i32, i32 }
%struct.b2BitSet = type { ptr, i32, i32 }
%struct.b2Profile = type { float, float, float, float, float, float, float, float, float, float, float, float, float, float, float, float, float, float, float, float, float, float }
%struct.b2Body = type { [32 x i8], ptr, i32, i32, i32, i32, i32, i32, i32, i32, i32, i32, i32, i32, float, float, float, float, i32, i32, i32, i16, i8, i8, i8, i8 }

; Function Attrs: inlinehint nounwind uwtable
define internal ptr @b2ShapeArray_Get(ptr noundef %0, i32 noundef %1) #7 {
  %3 = alloca ptr, align 8
  %4 = alloca i32, align 4
  store ptr %0, ptr %3, align 8, !tbaa !12
  store i32 %1, ptr %4, align 4, !tbaa !3
  %5 = load ptr, ptr %3, align 8, !tbaa !12
  %6 = getelementptr inbounds nuw %struct.b2ShapeArray, ptr %5, i32 0, i32 0
  %7 = load ptr, ptr %6, align 8, !tbaa !14
  %8 = load i32, ptr %4, align 4, !tbaa !3
  %9 = sext i32 %8 to i64
  %10 = getelementptr inbounds %struct.b2Shape, ptr %7, i64 %9
  ret ptr %10
}

; Function Attrs: inlinehint nounwind uwtable
define internal ptr @b2BodyArray_Get(ptr noundef %0, i32 noundef %1) #7 {
  %3 = alloca ptr, align 8
  %4 = alloca i32, align 4
  store ptr %0, ptr %3, align 8, !tbaa !12
  store i32 %1, ptr %4, align 4, !tbaa !3
  %5 = load ptr, ptr %3, align 8, !tbaa !12
  %6 = getelementptr inbounds nuw %struct.b2BodyArray, ptr %5, i32 0, i32 0
  %7 = load ptr, ptr %6, align 8, !tbaa !65
  %8 = load i32, ptr %4, align 4, !tbaa !3
  %9 = sext i32 %8 to i64
  %10 = getelementptr inbounds %struct.b2Body, ptr %7, i64 %9
  ret ptr %10
}

; Function Attrs: nounwind uwtable
define internal ptr @b2GetShape(ptr noundef %0, i64 %1) #0 {
  %3 = alloca %struct.b2ShapeId, align 4
  %4 = alloca ptr, align 8
  %5 = alloca i32, align 4
  %6 = alloca ptr, align 8
  store i64 %1, ptr %3, align 4
  store ptr %0, ptr %4, align 8, !tbaa !26
  call void @llvm.lifetime.start.p0(i64 4, ptr %5) #9
  %7 = getelementptr inbounds nuw %struct.b2ShapeId, ptr %3, i32 0, i32 0
  %8 = load i32, ptr %7, align 4, !tbaa !28
  %9 = sub nsw i32 %8, 1
  store i32 %9, ptr %5, align 4, !tbaa !3
  call void @llvm.lifetime.start.p0(i64 8, ptr %6) #9
  %10 = load ptr, ptr %4, align 8, !tbaa !26
  %11 = getelementptr inbounds nuw %struct.b2World, ptr %10, i32 0, i32 15
  %12 = load i32, ptr %5, align 4, !tbaa !3
  %13 = call ptr @b2ShapeArray_Get(ptr noundef %11, i32 noundef %12)
  store ptr %13, ptr %6, align 8, !tbaa !34
  %14 = load ptr, ptr %6, align 8, !tbaa !34
  call void @llvm.lifetime.end.p0(i64 8, ptr %6) #9
  call void @llvm.lifetime.end.p0(i64 4, ptr %5) #9
  ret ptr %14
}

; Function Attrs: nounwind uwtable
define void @b2Shape_SetDensity(i64 %0, float noundef %1, i1 noundef zeroext %2) #0 {
  %4 = alloca %struct.b2ShapeId, align 4
  %5 = alloca float, align 4
  %6 = alloca i8, align 1
  %7 = alloca ptr, align 8
  %8 = alloca i32, align 4
  %9 = alloca ptr, align 8
  %10 = alloca ptr, align 8
  store i64 %0, ptr %4, align 4
  store float %1, ptr %5, align 4, !tbaa !50
  %11 = zext i1 %2 to i8
  store i8 %11, ptr %6, align 1, !tbaa !63
  call void @llvm.lifetime.start.p0(i64 8, ptr %7) #9
  %12 = getelementptr inbounds nuw %struct.b2ShapeId, ptr %4, i32 0, i32 1
  %13 = load i16, ptr %12, align 4, !tbaa !30
  %14 = zext i16 %13 to i32
  %15 = call ptr @b2GetWorldLocked(i32 noundef %14)
  store ptr %15, ptr %7, align 8, !tbaa !26
  %16 = load ptr, ptr %7, align 8, !tbaa !26
  %17 = icmp eq ptr %16, null
  br i1 %17, label %18, label %19

18:                                               ; preds = %3
  store i32 1, ptr %8, align 4
  br label %48

19:                                               ; preds = %3
  call void @llvm.lifetime.start.p0(i64 8, ptr %9) #9
  %20 = load ptr, ptr %7, align 8, !tbaa !26
  %21 = load i64, ptr %4, align 4
  %22 = call ptr @b2GetShape(ptr noundef %20, i64 %21)
  store ptr %22, ptr %9, align 8, !tbaa !34
  %23 = load float, ptr %5, align 4, !tbaa !50
  %24 = load ptr, ptr %9, align 8, !tbaa !34
  %25 = getelementptr inbounds nuw %struct.b2Shape, ptr %24, i32 0, i32 6
  %26 = load float, ptr %25, align 8, !tbaa !203
  %27 = fcmp oeq float %23, %26
  br i1 %27, label %28, label %29

28:                                               ; preds = %19
  store i32 1, ptr %8, align 4
  br label %47

29:                                               ; preds = %19
  %30 = load float, ptr %5, align 4, !tbaa !50
  %31 = load ptr, ptr %9, align 8, !tbaa !34
  %32 = getelementptr inbounds nuw %struct.b2Shape, ptr %31, i32 0, i32 6
  store float %30, ptr %32, align 8, !tbaa !203
  %33 = load i8, ptr %6, align 1, !tbaa !63, !range !41, !noundef !42
  %34 = trunc i8 %33 to i1
  %35 = zext i1 %34 to i32
  %36 = icmp eq i32 %35, 1
  br i1 %36, label %37, label %46

37:                                               ; preds = %29
  call void @llvm.lifetime.start.p0(i64 8, ptr %10) #9
  %38 = load ptr, ptr %7, align 8, !tbaa !26
  %39 = getelementptr inbounds nuw %struct.b2World, ptr %38, i32 0, i32 4
  %40 = load ptr, ptr %9, align 8, !tbaa !34
  %41 = getelementptr inbounds nuw %struct.b2Shape, ptr %40, i32 0, i32 1
  %42 = load i32, ptr %41, align 4, !tbaa !64
  %43 = call ptr @b2BodyArray_Get(ptr noundef %39, i32 noundef %42)
  store ptr %43, ptr %10, align 8, !tbaa !32
  %44 = load ptr, ptr %7, align 8, !tbaa !26
  %45 = load ptr, ptr %10, align 8, !tbaa !32
  call void @b2UpdateBodyMassData(ptr noundef %44, ptr noundef %45)
  call void @llvm.lifetime.end.p0(i64 8, ptr %10) #9
  br label %46

46:                                               ; preds = %37, %29
  store i32 0, ptr %8, align 4
  br label %47

47:                                               ; preds = %46, %28
  call void @llvm.lifetime.end.p0(i64 8, ptr %9) #9
  br label %48

48:                                               ; preds = %47, %18
  call void @llvm.lifetime.end.p0(i64 8, ptr %7) #9
  %49 = load i32, ptr %8, align 4
  switch i32 %49, label %51 [
    i32 0, label %50
    i32 1, label %50
  ]

50:                                               ; preds = %48, %48
  ret void

51:                                               ; preds = %48
  unreachable
}