; Function Attrs: nounwind uwtable
define void @b2Shape_SetDensity(i64 %0, float noundef %1, i1 noundef zeroext %2) local_unnamed_addr #0 {
  %.sroa.2.0.extract.shift = lshr i64 %0, 32
  %4 = trunc nuw i64 %.sroa.2.0.extract.shift to i32
  %5 = and i32 %4, 65535
  %6 = tail call ptr @b2GetWorldLocked(i32 noundef %5) #10
  %7 = icmp eq ptr %6, null
  br i1 %7, label %23, label %8

8:                                                ; preds = %3
  %9 = getelementptr i8, ptr %6, i64 1256
  %.val = load ptr, ptr %9, align 8, !tbaa !14
  %10 = shl i64 %0, 32
  %sext.i = add i64 %10, -4294967296
  %11 = ashr exact i64 %sext.i, 32
  %12 = getelementptr inbounds %struct.b2Shape, ptr %.val, i64 %11
  %13 = getelementptr inbounds nuw i8, ptr %12, i64 24
  %14 = load float, ptr %13, align 8, !tbaa !173
  %15 = fcmp oeq float %1, %14
  br i1 %15, label %23, label %16

16:                                               ; preds = %8
  store float %1, ptr %13, align 8, !tbaa !173
  br i1 %2, label %17, label %23

17:                                               ; preds = %16
  %18 = getelementptr inbounds nuw i8, ptr %6, i64 1032
  %19 = getelementptr inbounds nuw i8, ptr %12, i64 4
  %20 = load i32, ptr %19, align 4, !tbaa !34
  %.val11 = load ptr, ptr %18, align 8, !tbaa !35
  %21 = sext i32 %20 to i64
  %22 = getelementptr inbounds %struct.b2Body, ptr %.val11, i64 %21
  tail call void @b2UpdateBodyMassData(ptr noundef nonnull %6, ptr noundef %22) #10
  br label %23

23:                                               ; preds = %8, %17, %16, %3
  ret void
}